; Function Attrs: mustprogress uwtable
define noundef double @_ZNK5arrow8internal7TDigest8QuantileEd(ptr noundef nonnull align 8 dereferenceable(32) %0, double noundef %1) local_unnamed_addr #3 align 2 {
  %3 = getelementptr inbounds nuw i8, ptr %0, i64 8
  %4 = load ptr, ptr %3, align 8, !tbaa !12
  %5 = load ptr, ptr %0, align 8, !tbaa !11
  %.not.i = icmp eq ptr %4, %5
  br i1 %.not.i, label %_ZNK5arrow8internal7TDigest10MergeInputEv.exit, label %6

6:                                                ; preds = %2
  %7 = getelementptr inbounds nuw i8, ptr %0, i64 24
  %8 = load ptr, ptr %7, align 8, !tbaa !3
  tail call void @_ZN5arrow8internal7TDigest11TDigestImpl10MergeInputERSt6vectorIdSaIdEE(ptr noundef nonnull align 8 dereferenceable(124) %8, ptr noundef nonnull align 8 dereferenceable(32) %0)
  br label %_ZNK5arrow8internal7TDigest10MergeInputEv.exit

_ZNK5arrow8internal7TDigest10MergeInputEv.exit:   ; preds = %2, %6
  %9 = getelementptr inbounds nuw i8, ptr %0, i64 24
  %10 = load ptr, ptr %9, align 8, !tbaa !3
  %11 = tail call noundef double @_ZNK5arrow8internal7TDigest11TDigestImpl8QuantileEd(ptr noundef nonnull align 8 dereferenceable(124) %10, double noundef %1)
  ret double %11
}